; Function Attrs: mustprogress uwtable
define void @_ZN10open_spiel10algorithms13InfostateTree17BuildTerminalNodeEPNS0_13InfostateNodeEmRKNS_5StateEd(ptr noundef nonnull align 8 dereferenceable(112) %0, ptr noundef %1, i64 noundef %2, ptr noundef nonnull align 8 dereferenceable(60) %3, double noundef %4) local_unnamed_addr #3 align 2 personality ptr @__gxx_personality_v0 {
_ZNSt6vectorIdSaIdEED2Ev.exit:
  %5 = alloca %"class.std::vector.15", align 8
  %6 = alloca %"class.std::unique_ptr", align 8
  %7 = alloca %"class.std::__cxx11::basic_string", align 8
  %8 = load ptr, ptr %3, align 8
  %9 = getelementptr inbounds nuw i8, ptr %8, i64 104
  %10 = load ptr, ptr %9, align 8
  call void %10(ptr dead_on_unwind nonnull writable sret(%"class.std::vector.15") align 8 %5, ptr noundef nonnull align 8 dereferenceable(60) %3)
  %11 = load i32, ptr %0, align 8
  %12 = sext i32 %11 to i64
  %13 = load ptr, ptr %5, align 8
  %14 = getelementptr inbounds double, ptr %13, i64 %12
  %15 = load double, ptr %14, align 8
  %16 = getelementptr inbounds nuw i8, ptr %5, i64 16
  %17 = load ptr, ptr %16, align 8
  %18 = ptrtoint ptr %17 to i64
  %19 = ptrtoint ptr %13 to i64
  %20 = sub i64 %18, %19
  call void @_ZdlPvm(ptr noundef nonnull %13, i64 noundef %20) #23
  %21 = getelementptr inbounds nuw i8, ptr %0, i64 8
  %22 = load ptr, ptr %21, align 8
  %23 = load i32, ptr %0, align 8
  %24 = load ptr, ptr %22, align 8
  %25 = getelementptr inbounds nuw i8, ptr %24, i64 8
  %26 = load ptr, ptr %25, align 8
  call void %26(ptr dead_on_unwind nonnull writable sret(%"class.std::__cxx11::basic_string") align 8 %7, ptr noundef nonnull align 8 dereferenceable(10) %22, ptr noundef nonnull align 8 dereferenceable(60) %3, i32 noundef %23)
  invoke void @_ZN10open_spiel10algorithms13InfostateTree8MakeNodeEPNS0_13InfostateNodeENS0_17InfostateNodeTypeERKNSt7__cxx1112basic_stringIcSt11char_traitsIcESaIcEEEddmPKNS_5StateE(ptr dead_on_unwind nonnull writable sret(%"class.std::unique_ptr") align 8 %6, ptr noundef nonnull align 8 dereferenceable(112) %0, ptr noundef %1, i32 noundef 2, ptr noundef nonnull align 8 dereferenceable(32) %7, double noundef %15, double noundef %4, i64 noundef %2, ptr noundef nonnull %3)
          to label %27 unwind label %31

27:                                               ; preds = %_ZNSt6vectorIdSaIdEED2Ev.exit
  %28 = invoke noundef ptr @_ZN10open_spiel10algorithms13InfostateNode8AddChildESt10unique_ptrIS1_St14default_deleteIS1_EE(ptr noundef nonnull align 8 dereferenceable(240) %1, ptr noundef nonnull %6)
          to label %29 unwind label %33

29:                                               ; preds = %27
  %30 = load ptr, ptr %6, align 8
  %.not.i = icmp eq ptr %30, null
  br i1 %.not.i, label %_ZNSt10unique_ptrIN10open_spiel10algorithms13InfostateNodeESt14default_deleteIS2_EED2Ev.exit, label %_ZNKSt14default_deleteIN10open_spiel10algorithms13InfostateNodeEEclEPS2_.exit.i

_ZNKSt14default_deleteIN10open_spiel10algorithms13InfostateNodeEEclEPS2_.exit.i: ; preds = %29
  call void @_ZN10open_spiel10algorithms13InfostateNodeD2Ev(ptr noundef nonnull align 8 dereferenceable(240) %30) #22
  call void @_ZdlPvm(ptr noundef nonnull %30, i64 noundef 240) #23
  br label %_ZNSt10unique_ptrIN10open_spiel10algorithms13InfostateNodeESt14default_deleteIS2_EED2Ev.exit

_ZNSt10unique_ptrIN10open_spiel10algorithms13InfostateNodeESt14default_deleteIS2_EED2Ev.exit: ; preds = %29, %_ZNKSt14default_deleteIN10open_spiel10algorithms13InfostateNodeEEclEPS2_.exit.i
  store ptr null, ptr %6, align 8
  call void @_ZNSt7__cxx1112basic_stringIcSt11char_traitsIcESaIcEED1Ev(ptr noundef nonnull align 8 dereferenceable(32) %7) #22
  call void @_ZN10open_spiel10algorithms13InfostateTree14UpdateLeafNodeEPNS0_13InfostateNodeERKNS_5StateEmd(ptr noundef nonnull align 8 dereferenceable(112) %0, ptr noundef %28, ptr noundef nonnull align 8 dereferenceable(60) %3, i64 noundef %2, double noundef %4)
  ret void

31:                                               ; preds = %_ZNSt6vectorIdSaIdEED2Ev.exit
  %32 = landingpad { ptr, i32 }
          cleanup
  br label %35

33:                                               ; preds = %27
  %34 = landingpad { ptr, i32 }
          cleanup
  call void @_ZNSt10unique_ptrIN10open_spiel10algorithms13InfostateNodeESt14default_deleteIS2_EED2Ev(ptr noundef nonnull align 8 dereferenceable(8) %6) #22
  br label %35

35:                                               ; preds = %33, %31
  %.pn = phi { ptr, i32 } [ %34, %33 ], [ %32, %31 ]
  call void @_ZNSt7__cxx1112basic_stringIcSt11char_traitsIcESaIcEED1Ev(ptr noundef nonnull align 8 dereferenceable(32) %7) #22
  resume { ptr, i32 } %.pn
}